target datalayout = "e-m:e-p270:32:32-p271:32:32-p272:64:64-i64:64-i128:128-f80:128-n8:16:32:64-S128"
target triple = "x86_64-pc-linux-gnu"

%"struct.cmUVProcessChain::InternalData" = type { ptr, i8, %"class.cm::uv_loop_ptr", ptr, %"struct.cmUVProcessChain::InternalData::StreamData", %"struct.cmUVProcessChain::InternalData::StreamData", %"struct.cmUVProcessChain::InternalData::StreamData", %"struct.cm::uv_pipe_ptr", %"struct.cm::uv_pipe_ptr", i32, %"class.std::vector.18" }
%"class.cm::uv_loop_ptr" = type { %"class.std::shared_ptr" }
%"class.std::shared_ptr" = type { %"class.std::__shared_ptr" }
%"class.std::__shared_ptr" = type { ptr, %"class.std::__shared_count" }
%"class.std::__shared_count" = type { ptr }
%"struct.cmUVProcessChain::InternalData::StreamData" = type { i32, %struct.uv_stdio_container_s }
%struct.uv_stdio_container_s = type { i32, %union.anon.14 }
%union.anon.14 = type { ptr }
%"struct.cm::uv_pipe_ptr" = type { %"class.cm::uv_handle_ptr_" }
%"class.cm::uv_handle_ptr_" = type { %"class.cm::uv_handle_ptr_base_" }
%"class.cm::uv_handle_ptr_base_" = type { %"class.std::shared_ptr.15" }
%"class.std::shared_ptr.15" = type { %"class.std::__shared_ptr.16" }
%"class.std::__shared_ptr.16" = type { ptr, %"class.std::__shared_count" }
%"class.std::vector.18" = type { %"struct.std::_Vector_base.19" }
%"struct.std::_Vector_base.19" = type { %"struct.std::_Vector_base<std::unique_ptr<cmUVProcessChain::InternalData::ProcessData>, std::allocator<std::unique_ptr<cmUVProcessChain::InternalData::ProcessData>>>::_Vector_impl" }
%"struct.std::_Vector_base<std::unique_ptr<cmUVProcessChain::InternalData::ProcessData>, std::allocator<std::unique_ptr<cmUVProcessChain::InternalData::ProcessData>>>::_Vector_impl" = type { %"struct.std::_Vector_base<std::unique_ptr<cmUVProcessChain::InternalData::ProcessData>, std::allocator<std::unique_ptr<cmUVProcessChain::InternalData::ProcessData>>>::_Vector_impl_data" }
%"struct.std::_Vector_base<std::unique_ptr<cmUVProcessChain::InternalData::ProcessData>, std::allocator<std::unique_ptr<cmUVProcessChain::InternalData::ProcessData>>>::_Vector_impl_data" = type { ptr, ptr, ptr }
%"struct.cmUVProcessChain::InternalData::ProcessData" = type { ptr, %"struct.cm::uv_process_ptr", %"struct.cm::uv_pipe_ptr", %"struct.cm::uv_pipe_ptr", %"struct.cmUVProcessChain::Status" }
%"struct.cm::uv_process_ptr" = type { %"class.cm::uv_handle_ptr_.31" }
%"class.cm::uv_handle_ptr_.31" = type { %"class.cm::uv_handle_ptr_base_.32" }
%"class.cm::uv_handle_ptr_base_.32" = type { %"class.std::shared_ptr.33" }
%"class.std::shared_ptr.33" = type { %"class.std::__shared_ptr.34" }
%"class.std::__shared_ptr.34" = type { ptr, %"class.std::__shared_count" }
%"struct.cmUVProcessChain::Status" = type { i32, i8, i64, i32 }
%class.anon = type { i8 }
%struct.uv_process_s = type { ptr, ptr, i32, ptr, [2 x ptr], %union.anon.58, ptr, i32, ptr, i32, [2 x ptr], i32 }
%union.anon.58 = type { [4 x ptr] }

; Function Attrs: mustprogress nounwind uwtable
define dso_local void @_ZN16cmUVProcessChain12InternalData11ProcessData6FinishEv(ptr noundef nonnull align 8 dereferenceable(80) %0) #0 align 2 {
  %2 = alloca ptr, align 8
  store ptr %0, ptr %2, align 8
  %3 = load ptr, ptr %2, align 8
  %4 = getelementptr inbounds %"struct.cmUVProcessChain::InternalData::ProcessData", ptr %3, i32 0, i32 4
  %5 = getelementptr inbounds %"struct.cmUVProcessChain::Status", ptr %4, i32 0, i32 1
  store i8 1, ptr %5, align 4
  %6 = getelementptr inbounds %"struct.cmUVProcessChain::InternalData::ProcessData", ptr %3, i32 0, i32 0
  %7 = load ptr, ptr %6, align 8
  %8 = getelementptr inbounds %"struct.cmUVProcessChain::InternalData", ptr %7, i32 0, i32 9
  %9 = load i32, ptr %8, align 8
  %10 = add i32 %9, 1
  store i32 %10, ptr %8, align 8
  ret void
}

; Function Attrs: mustprogress nounwind uwtable
define internal void @"_ZZN16cmUVProcessChain12InternalData12SpawnProcessEmRKN23cmUVProcessChainBuilder20ProcessConfigurationEbbENK3$_0clEP12uv_process_sli"(ptr noundef nonnull align 1 dereferenceable(1) %0, ptr noundef %1, i64 noundef %2, i32 noundef %3) #0 align 2 {
  %5 = alloca ptr, align 8
  %6 = alloca ptr, align 8
  %7 = alloca i64, align 8
  %8 = alloca i32, align 4
  %9 = alloca ptr, align 8
  store ptr %0, ptr %5, align 8
  store ptr %1, ptr %6, align 8
  store i64 %2, ptr %7, align 8
  store i32 %3, ptr %8, align 4
  %10 = load ptr, ptr %6, align 8
  %11 = getelementptr inbounds %struct.uv_process_s, ptr %10, i32 0, i32 0
  %12 = load ptr, ptr %11, align 8
  store ptr %12, ptr %9, align 8
  %13 = load i64, ptr %7, align 8
  %14 = load ptr, ptr %9, align 8
  %15 = getelementptr inbounds %"struct.cmUVProcessChain::InternalData::ProcessData", ptr %14, i32 0, i32 4
  %16 = getelementptr inbounds %"struct.cmUVProcessChain::Status", ptr %15, i32 0, i32 2
  store i64 %13, ptr %16, align 8
  %17 = load i32, ptr %8, align 4
  %18 = load ptr, ptr %9, align 8
  %19 = getelementptr inbounds %"struct.cmUVProcessChain::InternalData::ProcessData", ptr %18, i32 0, i32 4
  %20 = getelementptr inbounds %"struct.cmUVProcessChain::Status", ptr %19, i32 0, i32 3
  store i32 %17, ptr %20, align 8
  %21 = load ptr, ptr %9, align 8
  call void @_ZN16cmUVProcessChain12InternalData11ProcessData6FinishEv(ptr noundef nonnull align 8 dereferenceable(80) %21)
  ret void
}

; Function Attrs: mustprogress uwtable
define internal void @"_ZZN16cmUVProcessChain12InternalData12SpawnProcessEmRKN23cmUVProcessChainBuilder20ProcessConfigurationEbbEN3$_08__invokeEP12uv_process_sli"(ptr noundef %0, i64 noundef %1, i32 noundef %2) #2 align 2 {
  %4 = alloca ptr, align 8
  %5 = alloca i64, align 8
  %6 = alloca i32, align 4
  %7 = alloca %class.anon, align 1
  store ptr %0, ptr %4, align 8
  store i64 %1, ptr %5, align 8
  store i32 %2, ptr %6, align 4
  %8 = load ptr, ptr %4, align 8
  %9 = load i64, ptr %5, align 8
  %10 = load i32, ptr %6, align 4
  call void @"_ZZN16cmUVProcessChain12InternalData12SpawnProcessEmRKN23cmUVProcessChainBuilder20ProcessConfigurationEbbENK3$_0clEP12uv_process_sli"(ptr noundef nonnull align 1 dereferenceable(1) %7, ptr noundef %8, i64 noundef %9, i32 noundef %10)
  ret void
}