; Function Attrs: mustprogress nofree norecurse nosync nounwind willreturn memory(readwrite, inaccessiblemem: none) uwtable
define internal void @"_ZZN16cmUVProcessChain12InternalData12SpawnProcessEmRKN23cmUVProcessChainBuilder20ProcessConfigurationEbbEN3$_08__invokeEP12uv_process_sli"(ptr noundef readonly captures(none) %0, i64 noundef %1, i32 noundef %2) #8 align 2 {
  %.val = load ptr, ptr %0, align 8
  %4 = getelementptr inbounds nuw i8, ptr %.val, i64 64
  store i64 %1, ptr %4, align 8
  %5 = getelementptr inbounds nuw i8, ptr %.val, i64 72
  store i32 %2, ptr %5, align 8
  %6 = getelementptr inbounds nuw i8, ptr %.val, i64 60
  store i8 1, ptr %6, align 4
  %7 = load ptr, ptr %.val, align 8
  %8 = getelementptr inbounds nuw i8, ptr %7, i64 144
  %9 = load i32, ptr %8, align 8
  %10 = add i32 %9, 1
  store i32 %10, ptr %8, align 8
  ret void
}